target datalayout = "e-m:e-p270:32:32-p271:32:32-p272:64:64-i64:64-i128:128-f80:128-n8:16:32:64-S128"
target triple = "x86_64-pc-linux-gnu"

%union.ListCell = type { ptr }
%struct.ForEachState = type { ptr, i32 }
%struct.List = type { i32, i32, i32, ptr, [0 x %union.ListCell] }

; Function Attrs: nounwind uwtable
define dso_local zeroext i1 @verify_common_type(i32 noundef %0, ptr noundef %1) #0 {
  %3 = alloca i1, align 1
  %4 = alloca i32, align 4
  %5 = alloca ptr, align 8
  %6 = alloca ptr, align 8
  %7 = alloca %struct.ForEachState, align 8
  %8 = alloca i32, align 4
  %9 = alloca ptr, align 8
  %10 = alloca i32, align 4
  store i32 %0, ptr %4, align 4
  store ptr %1, ptr %5, align 8
  call void @llvm.lifetime.start.p0(i64 8, ptr %6) #6
  call void @llvm.lifetime.start.p0(i64 16, ptr %7) #6
  %11 = getelementptr inbounds nuw %struct.ForEachState, ptr %7, i32 0, i32 0
  %12 = load ptr, ptr %5, align 8
  store ptr %12, ptr %11, align 8
  %13 = getelementptr inbounds nuw %struct.ForEachState, ptr %7, i32 0, i32 1
  store i32 0, ptr %13, align 8
  %14 = getelementptr i8, ptr %7, i64 12
  call void @llvm.memset.p0.i64(ptr align 4 %14, i8 0, i64 4, i1 false)
  br label %15

15:                                               ; preds = %52, %2
  %16 = getelementptr inbounds nuw %struct.ForEachState, ptr %7, i32 0, i32 0
  %17 = load ptr, ptr %16, align 8
  %18 = icmp ne ptr %17, null
  br i1 %18, label %19, label %36

19:                                               ; preds = %15
  %20 = getelementptr inbounds nuw %struct.ForEachState, ptr %7, i32 0, i32 1
  %21 = load i32, ptr %20, align 8
  %22 = getelementptr inbounds nuw %struct.ForEachState, ptr %7, i32 0, i32 0
  %23 = load ptr, ptr %22, align 8
  %24 = getelementptr inbounds nuw %struct.List, ptr %23, i32 0, i32 1
  %25 = load i32, ptr %24, align 4
  %26 = icmp slt i32 %21, %25
  br i1 %26, label %27, label %36

27:                                               ; preds = %19
  %28 = getelementptr inbounds nuw %struct.ForEachState, ptr %7, i32 0, i32 0
  %29 = load ptr, ptr %28, align 8
  %30 = getelementptr inbounds nuw %struct.List, ptr %29, i32 0, i32 3
  %31 = load ptr, ptr %30, align 8
  %32 = getelementptr inbounds nuw %struct.ForEachState, ptr %7, i32 0, i32 1
  %33 = load i32, ptr %32, align 8
  %34 = sext i32 %33 to i64
  %35 = getelementptr inbounds %union.ListCell, ptr %31, i64 %34
  store ptr %35, ptr %6, align 8
  br label %37

36:                                               ; preds = %19, %15
  store ptr null, ptr %6, align 8
  br label %37

37:                                               ; preds = %36, %27
  %38 = phi i32 [ 1, %27 ], [ 0, %36 ]
  %39 = icmp ne i32 %38, 0
  br i1 %39, label %41, label %40

40:                                               ; preds = %37
  store i32 2, ptr %8, align 4
  br label %56

41:                                               ; preds = %37
  call void @llvm.lifetime.start.p0(i64 8, ptr %9) #6
  %42 = load ptr, ptr %6, align 8
  %43 = load ptr, ptr %42, align 8
  store ptr %43, ptr %9, align 8
  call void @llvm.lifetime.start.p0(i64 4, ptr %10) #6
  %44 = load ptr, ptr %9, align 8
  %45 = call i32 @exprType(ptr noundef %44)
  store i32 %45, ptr %10, align 4
  %46 = call zeroext i1 @can_coerce_type(i32 noundef 1, ptr noundef %10, ptr noundef %4, i32 noundef 0)
  br i1 %46, label %48, label %47

47:                                               ; preds = %41
  store i1 false, ptr %3, align 1
  store i32 1, ptr %8, align 4
  br label %49

48:                                               ; preds = %41
  store i32 0, ptr %8, align 4
  br label %49

49:                                               ; preds = %48, %47
  call void @llvm.lifetime.end.p0(i64 4, ptr %10) #6
  call void @llvm.lifetime.end.p0(i64 8, ptr %9) #6
  %50 = load i32, ptr %8, align 4
  switch i32 %50, label %56 [
    i32 0, label %51
  ]

51:                                               ; preds = %49
  br label %52

52:                                               ; preds = %51
  %53 = getelementptr inbounds nuw %struct.ForEachState, ptr %7, i32 0, i32 1
  %54 = load i32, ptr %53, align 8
  %55 = add i32 %54, 1
  store i32 %55, ptr %53, align 8
  br label %15, !llvm.loop !13

56:                                               ; preds = %49, %40
  call void @llvm.lifetime.end.p0(i64 16, ptr %7) #6
  %57 = load i32, ptr %8, align 4
  switch i32 %57, label %59 [
    i32 2, label %58
  ]

58:                                               ; preds = %56
  store i1 true, ptr %3, align 1
  store i32 1, ptr %8, align 4
  br label %59

59:                                               ; preds = %58, %56
  call void @llvm.lifetime.end.p0(i64 8, ptr %6) #6
  %60 = load i1, ptr %3, align 1
  ret i1 %60
}