; Function Attrs: nounwind uwtable
define dso_local noundef zeroext i1 @verify_common_type(i32 noundef %0, ptr noundef readonly captures(address_is_null) %1) local_unnamed_addr #0 {
  %3 = alloca i32, align 4
  %4 = alloca i32, align 4
  store i32 %0, ptr %3, align 4
  %5 = getelementptr inbounds nuw i8, ptr %1, i64 4
  %.not = icmp eq ptr %1, null
  br i1 %.not, label %.critedge, label %.lr.ph

.lr.ph:                                           ; preds = %2
  %6 = getelementptr inbounds nuw i8, ptr %1, i64 16
  %7 = load i32, ptr %5, align 4
  %8 = icmp sgt i32 %7, 0
  br i1 %8, label %.lr.ph26, label %.critedge

9:                                                ; preds = %.lr.ph26
  %indvars.iv.next = add nuw nsw i64 %indvars.iv, 1
  %10 = load i32, ptr %5, align 4
  %11 = sext i32 %10 to i64
  %12 = icmp slt i64 %indvars.iv.next, %11
  br i1 %12, label %.lr.ph26, label %.critedge

.lr.ph26:                                         ; preds = %.lr.ph, %9
  %indvars.iv = phi i64 [ %indvars.iv.next, %9 ], [ 0, %.lr.ph ]
  %13 = load ptr, ptr %6, align 8
  %14 = getelementptr inbounds nuw %union.ListCell, ptr %13, i64 %indvars.iv
  %15 = load ptr, ptr %14, align 8
  call void @llvm.lifetime.start.p0(i64 4, ptr nonnull %4) #5
  %16 = tail call i32 @exprType(ptr noundef %15) #5
  store i32 %16, ptr %4, align 4
  %17 = call zeroext i1 @can_coerce_type(i32 noundef 1, ptr noundef nonnull %4, ptr noundef nonnull %3, i32 noundef 0)
  call void @llvm.lifetime.end.p0(i64 4, ptr nonnull %4) #5
  br i1 %17, label %9, label %.critedge

.critedge:                                        ; preds = %.lr.ph26, %9, %.lr.ph, %2
  %.not1417 = phi i1 [ true, %2 ], [ true, %.lr.ph ], [ %17, %9 ], [ %17, %.lr.ph26 ]
  ret i1 %.not1417
}